target datalayout = "e-m:e-p270:32:32-p271:32:32-p272:64:64-i64:64-i128:128-f80:128-n8:16:32:64-S128"
target triple = "x86_64-pc-linux-gnu"

%struct.EState = type { i32, i32, ptr, ptr, ptr, i32, ptr, ptr, ptr, ptr, ptr, ptr, ptr, ptr, ptr, ptr, i32, ptr, ptr, ptr, ptr, ptr, ptr, ptr, ptr, ptr, ptr, i64, i64, i32, i32, i8, ptr, ptr, ptr, ptr, ptr, i8, i32, i32, ptr, i32, ptr, ptr, ptr, ptr }
%struct.Node = type { i32 }

@CurrentMemoryContext = external global ptr, align 8
@.str = private unnamed_addr constant [14 x i8] c"ExecutorState\00", align 1

; Function Attrs: inlinehint nounwind uwtable
define internal ptr @newNode(i64 noundef %0, i32 noundef %1) #3 {
  %3 = alloca i64, align 8
  %4 = alloca i32, align 4
  %5 = alloca ptr, align 8
  store i64 %0, ptr %3, align 8
  store i32 %1, ptr %4, align 4
  call void @llvm.lifetime.start.p0(i64 8, ptr %5) #6
  %6 = load i64, ptr %3, align 8
  %7 = call ptr @palloc0(i64 noundef %6)
  store ptr %7, ptr %5, align 8
  %8 = load i32, ptr %4, align 4
  %9 = load ptr, ptr %5, align 8
  %10 = getelementptr inbounds nuw %struct.Node, ptr %9, i32 0, i32 0
  store i32 %8, ptr %10, align 4
  %11 = load ptr, ptr %5, align 8
  call void @llvm.lifetime.end.p0(i64 8, ptr %5) #6
  ret ptr %11
}

; Function Attrs: inlinehint nounwind uwtable
define internal ptr @MemoryContextSwitchTo(ptr noundef %0) #3 {
  %2 = alloca ptr, align 8
  %3 = alloca ptr, align 8
  store ptr %0, ptr %2, align 8
  call void @llvm.lifetime.start.p0(i64 8, ptr %3) #6
  %4 = load ptr, ptr @CurrentMemoryContext, align 8
  store ptr %4, ptr %3, align 8
  %5 = load ptr, ptr %2, align 8
  store ptr %5, ptr @CurrentMemoryContext, align 8
  %6 = load ptr, ptr %3, align 8
  call void @llvm.lifetime.end.p0(i64 8, ptr %3) #6
  ret ptr %6
}

; Function Attrs: nounwind uwtable
define dso_local ptr @CreateExecutorState() #0 {
  %1 = alloca ptr, align 8
  %2 = alloca ptr, align 8
  %3 = alloca ptr, align 8
  %4 = alloca i32, align 4
  call void @llvm.lifetime.start.p0(i64 8, ptr %1) #6
  call void @llvm.lifetime.start.p0(i64 8, ptr %2) #6
  call void @llvm.lifetime.start.p0(i64 8, ptr %3) #6
  br label %5

5:                                                ; preds = %0
  br label %6

6:                                                ; preds = %5
  br label %7

7:                                                ; preds = %6
  store i32 1, ptr %4, align 4
  %8 = load ptr, ptr @CurrentMemoryContext, align 8
  %9 = call ptr @AllocSetContextCreateInternal(ptr noundef %8, ptr noundef @.str, i64 noundef 0, i64 noundef 8192, i64 noundef 8388608)
  store ptr %9, ptr %2, align 8
  %10 = load ptr, ptr %2, align 8
  %11 = call ptr @MemoryContextSwitchTo(ptr noundef %10)
  store ptr %11, ptr %3, align 8
  %12 = call ptr @newNode(i64 noundef 344, i32 noundef 388)
  store ptr %12, ptr %1, align 8
  %13 = load ptr, ptr %1, align 8
  %14 = getelementptr inbounds nuw %struct.EState, ptr %13, i32 0, i32 1
  store i32 1, ptr %14, align 4
  %15 = load ptr, ptr %1, align 8
  %16 = getelementptr inbounds nuw %struct.EState, ptr %15, i32 0, i32 2
  store ptr null, ptr %16, align 8
  %17 = load ptr, ptr %1, align 8
  %18 = getelementptr inbounds nuw %struct.EState, ptr %17, i32 0, i32 3
  store ptr null, ptr %18, align 8
  %19 = load ptr, ptr %1, align 8
  %20 = getelementptr inbounds nuw %struct.EState, ptr %19, i32 0, i32 4
  store ptr null, ptr %20, align 8
  %21 = load ptr, ptr %1, align 8
  %22 = getelementptr inbounds nuw %struct.EState, ptr %21, i32 0, i32 5
  store i32 0, ptr %22, align 8
  %23 = load ptr, ptr %1, align 8
  %24 = getelementptr inbounds nuw %struct.EState, ptr %23, i32 0, i32 6
  store ptr null, ptr %24, align 8
  %25 = load ptr, ptr %1, align 8
  %26 = getelementptr inbounds nuw %struct.EState, ptr %25, i32 0, i32 7
  store ptr null, ptr %26, align 8
  %27 = load ptr, ptr %1, align 8
  %28 = getelementptr inbounds nuw %struct.EState, ptr %27, i32 0, i32 8
  store ptr null, ptr %28, align 8
  %29 = load ptr, ptr %1, align 8
  %30 = getelementptr inbounds nuw %struct.EState, ptr %29, i32 0, i32 9
  store ptr null, ptr %30, align 8
  %31 = load ptr, ptr %1, align 8
  %32 = getelementptr inbounds nuw %struct.EState, ptr %31, i32 0, i32 10
  store ptr null, ptr %32, align 8
  %33 = load ptr, ptr %1, align 8
  %34 = getelementptr inbounds nuw %struct.EState, ptr %33, i32 0, i32 15
  store ptr null, ptr %34, align 8
  %35 = load ptr, ptr %1, align 8
  %36 = getelementptr inbounds nuw %struct.EState, ptr %35, i32 0, i32 16
  store i32 0, ptr %36, align 8
  %37 = load ptr, ptr %1, align 8
  %38 = getelementptr inbounds nuw %struct.EState, ptr %37, i32 0, i32 17
  store ptr null, ptr %38, align 8
  %39 = load ptr, ptr %1, align 8
  %40 = getelementptr inbounds nuw %struct.EState, ptr %39, i32 0, i32 18
  store ptr null, ptr %40, align 8
  %41 = load ptr, ptr %1, align 8
  %42 = getelementptr inbounds nuw %struct.EState, ptr %41, i32 0, i32 20
  store ptr null, ptr %42, align 8
  %43 = load ptr, ptr %1, align 8
  %44 = getelementptr inbounds nuw %struct.EState, ptr %43, i32 0, i32 21
  store ptr null, ptr %44, align 8
  %45 = load ptr, ptr %1, align 8
  %46 = getelementptr inbounds nuw %struct.EState, ptr %45, i32 0, i32 44
  store ptr null, ptr %46, align 8
  %47 = load ptr, ptr %1, align 8
  %48 = getelementptr inbounds nuw %struct.EState, ptr %47, i32 0, i32 45
  store ptr null, ptr %48, align 8
  %49 = load ptr, ptr %1, align 8
  %50 = getelementptr inbounds nuw %struct.EState, ptr %49, i32 0, i32 22
  store ptr null, ptr %50, align 8
  %51 = load ptr, ptr %1, align 8
  %52 = getelementptr inbounds nuw %struct.EState, ptr %51, i32 0, i32 23
  store ptr null, ptr %52, align 8
  %53 = load ptr, ptr %1, align 8
  %54 = getelementptr inbounds nuw %struct.EState, ptr %53, i32 0, i32 24
  store ptr null, ptr %54, align 8
  %55 = load ptr, ptr %2, align 8
  %56 = load ptr, ptr %1, align 8
  %57 = getelementptr inbounds nuw %struct.EState, ptr %56, i32 0, i32 25
  store ptr %55, ptr %57, align 8
  %58 = load ptr, ptr %1, align 8
  %59 = getelementptr inbounds nuw %struct.EState, ptr %58, i32 0, i32 26
  store ptr null, ptr %59, align 8
  %60 = load ptr, ptr %1, align 8
  %61 = getelementptr inbounds nuw %struct.EState, ptr %60, i32 0, i32 27
  store i64 0, ptr %61, align 8
  %62 = load ptr, ptr %1, align 8
  %63 = getelementptr inbounds nuw %struct.EState, ptr %62, i32 0, i32 28
  store i64 0, ptr %63, align 8
  %64 = load ptr, ptr %1, align 8
  %65 = getelementptr inbounds nuw %struct.EState, ptr %64, i32 0, i32 29
  store i32 0, ptr %65, align 8
  %66 = load ptr, ptr %1, align 8
  %67 = getelementptr inbounds nuw %struct.EState, ptr %66, i32 0, i32 30
  store i32 0, ptr %67, align 4
  %68 = load ptr, ptr %1, align 8
  %69 = getelementptr inbounds nuw %struct.EState, ptr %68, i32 0, i32 31
  store i8 0, ptr %69, align 8
  %70 = load ptr, ptr %1, align 8
  %71 = getelementptr inbounds nuw %struct.EState, ptr %70, i32 0, i32 32
  store ptr null, ptr %71, align 8
  %72 = load ptr, ptr %1, align 8
  %73 = getelementptr inbounds nuw %struct.EState, ptr %72, i32 0, i32 33
  store ptr null, ptr %73, align 8
  %74 = load ptr, ptr %1, align 8
  %75 = getelementptr inbounds nuw %struct.EState, ptr %74, i32 0, i32 34
  store ptr null, ptr %75, align 8
  %76 = load ptr, ptr %1, align 8
  %77 = getelementptr inbounds nuw %struct.EState, ptr %76, i32 0, i32 35
  store ptr null, ptr %77, align 8
  %78 = load ptr, ptr %1, align 8
  %79 = getelementptr inbounds nuw %struct.EState, ptr %78, i32 0, i32 14
  store ptr null, ptr %79, align 8
  %80 = load ptr, ptr %1, align 8
  %81 = getelementptr inbounds nuw %struct.EState, ptr %80, i32 0, i32 37
  store i8 0, ptr %81, align 8
  %82 = load ptr, ptr %1, align 8
  %83 = getelementptr inbounds nuw %struct.EState, ptr %82, i32 0, i32 38
  store i32 0, ptr %83, align 4
  %84 = load ptr, ptr %1, align 8
  %85 = getelementptr inbounds nuw %struct.EState, ptr %84, i32 0, i32 39
  store i32 0, ptr %85, align 8
  %86 = load ptr, ptr %1, align 8
  %87 = getelementptr inbounds nuw %struct.EState, ptr %86, i32 0, i32 41
  store i32 0, ptr %87, align 8
  %88 = load ptr, ptr %1, align 8
  %89 = getelementptr inbounds nuw %struct.EState, ptr %88, i32 0, i32 42
  store ptr null, ptr %89, align 8
  %90 = load ptr, ptr %3, align 8
  %91 = call ptr @MemoryContextSwitchTo(ptr noundef %90)
  %92 = load ptr, ptr %1, align 8
  call void @llvm.lifetime.end.p0(i64 8, ptr %3) #6
  call void @llvm.lifetime.end.p0(i64 8, ptr %2) #6
  call void @llvm.lifetime.end.p0(i64 8, ptr %1) #6
  ret ptr %92
}