; Function Attrs: nounwind uwtable
define dso_local noundef ptr @CreateExecutorState() local_unnamed_addr #0 {
  %1 = load ptr, ptr @CurrentMemoryContext, align 8
  %2 = tail call ptr @AllocSetContextCreateInternal(ptr noundef %1, ptr noundef nonnull @.str, i64 noundef 0, i64 noundef 8192, i64 noundef 8388608) #12
  %3 = load ptr, ptr @CurrentMemoryContext, align 8
  store ptr %2, ptr @CurrentMemoryContext, align 8
  %4 = tail call noundef ptr @palloc0(i64 noundef 344) #12
  store i32 388, ptr %4, align 4
  %5 = getelementptr inbounds nuw i8, ptr %4, i64 4
  store i32 1, ptr %5, align 4
  %6 = getelementptr inbounds nuw i8, ptr %4, i64 8
  %7 = getelementptr inbounds nuw i8, ptr %4, i64 40
  %8 = getelementptr inbounds nuw i8, ptr %4, i64 112
  store ptr null, ptr %8, align 8
  %9 = getelementptr inbounds nuw i8, ptr %4, i64 120
  store i32 0, ptr %9, align 8
  %10 = getelementptr inbounds nuw i8, ptr %4, i64 128
  %11 = getelementptr inbounds nuw i8, ptr %4, i64 152
  %12 = getelementptr inbounds nuw i8, ptr %4, i64 328
  %13 = getelementptr inbounds nuw i8, ptr %4, i64 192
  tail call void @llvm.memset.p0.i64(ptr noundef nonnull align 8 dereferenceable(28) %6, i8 0, i64 28, i1 false)
  tail call void @llvm.memset.p0.i64(ptr noundef nonnull align 8 dereferenceable(40) %7, i8 0, i64 40, i1 false)
  tail call void @llvm.memset.p0.i64(ptr noundef nonnull align 8 dereferenceable(16) %10, i8 0, i64 16, i1 false)
  tail call void @llvm.memset.p0.i64(ptr noundef nonnull align 8 dereferenceable(40) %11, i8 0, i64 40, i1 false)
  tail call void @llvm.memset.p0.i64(ptr noundef nonnull align 8 dereferenceable(16) %12, i8 0, i64 16, i1 false)
  store ptr %2, ptr %13, align 8
  %14 = getelementptr inbounds nuw i8, ptr %4, i64 200
  %15 = getelementptr inbounds nuw i8, ptr %4, i64 240
  %16 = getelementptr inbounds nuw i8, ptr %4, i64 104
  store ptr null, ptr %16, align 8
  %17 = getelementptr inbounds nuw i8, ptr %4, i64 280
  store i8 0, ptr %17, align 8
  %18 = getelementptr inbounds nuw i8, ptr %4, i64 284
  store i32 0, ptr %18, align 4
  %19 = getelementptr inbounds nuw i8, ptr %4, i64 288
  store i32 0, ptr %19, align 8
  %20 = getelementptr inbounds nuw i8, ptr %4, i64 304
  store i32 0, ptr %20, align 8
  %21 = getelementptr inbounds nuw i8, ptr %4, i64 312
  store ptr null, ptr %21, align 8
  tail call void @llvm.memset.p0.i64(ptr noundef nonnull align 8 dereferenceable(33) %14, i8 0, i64 33, i1 false)
  tail call void @llvm.memset.p0.i64(ptr noundef nonnull align 8 dereferenceable(32) %15, i8 0, i64 32, i1 false)
  store ptr %3, ptr @CurrentMemoryContext, align 8
  ret ptr %4
}